target datalayout = "e-m:e-p270:32:32-p271:32:32-p272:64:64-i64:64-i128:128-f80:128-n8:16:32:64-S128"
target triple = "x86_64-pc-linux-gnu"

; Function Attrs: mustprogress nounwind uwtable
define linkonce_odr dso_local void @_Z13DoNotOptimizeIiEvPT_(ptr noundef %0) #0 comdat {
  %2 = alloca ptr, align 8
  store ptr %0, ptr %2, align 8
  %3 = load ptr, ptr %2, align 8
  %4 = call ptr asm sideeffect "", "=r,0,~{dirflag},~{fpsr},~{flags}"(ptr %3) #11, !srcloc !7
  store ptr %4, ptr %2, align 8
  ret void
}

; Function Attrs: mustprogress uwtable
define dso_local void @_ZN17BM_FlatArray_Fill4BodyEv() #4 align 2 {
  %1 = alloca ptr, align 8
  %2 = alloca i32, align 4
  %3 = call noundef ptr @_Z7rcAllocm11rcAllocHint(i64 noundef 400000, i32 noundef 1)
  store ptr %3, ptr %1, align 8
  store i32 0, ptr %2, align 4
  br label %4

4:                                                ; preds = %13, %0
  %5 = load i32, ptr %2, align 4
  %6 = sext i32 %5 to i64
  %7 = icmp slt i64 %6, 100000
  br i1 %7, label %8, label %16

8:                                                ; preds = %4
  %9 = load ptr, ptr %1, align 8
  %10 = load i32, ptr %2, align 4
  %11 = sext i32 %10 to i64
  %12 = getelementptr inbounds i32, ptr %9, i64 %11
  store i32 2, ptr %12, align 4
  br label %13

13:                                               ; preds = %8
  %14 = load i32, ptr %2, align 4
  %15 = add nsw i32 %14, 1
  store i32 %15, ptr %2, align 4
  br label %4, !llvm.loop !8

16:                                               ; preds = %4
  %17 = load ptr, ptr %1, align 8
  call void @_Z13DoNotOptimizeIiEvPT_(ptr noundef %17)
  %18 = load ptr, ptr %1, align 8
  call void @_Z6rcFreePv(ptr noundef %18)
  ret void
}