; Function Attrs: mustprogress uwtable
define dso_local void @_ZN17BM_FlatArray_Fill4BodyEv() local_unnamed_addr #3 align 2 {
  %1 = tail call noundef ptr @_Z7rcAllocm11rcAllocHint(i64 noundef 400000, i32 noundef 1)
  br label %2

2:                                                ; preds = %0, %2
  %indvars.iv = phi i64 [ 0, %0 ], [ %indvars.iv.next, %2 ]
  %3 = getelementptr inbounds nuw i32, ptr %1, i64 %indvars.iv
  store i32 2, ptr %3, align 4
  %indvars.iv.next = add nuw nsw i64 %indvars.iv, 1
  %exitcond.not = icmp eq i64 %indvars.iv.next, 100000
  br i1 %exitcond.not, label %4, label %2, !llvm.loop !8

4:                                                ; preds = %2
  %5 = tail call ptr asm sideeffect "", "=r,0,~{dirflag},~{fpsr},~{flags}"(ptr nonnull %1) #16, !srcloc !7
  tail call void @_Z6rcFreePv(ptr noundef nonnull %1)
  ret void
}